target datalayout = "e-m:e-p270:32:32-p271:32:32-p272:64:64-i64:64-i128:128-f80:128-n8:16:32:64-S128"
target triple = "x86_64-pc-linux-gnu"

%struct.pcapng_block_header_s = type { i32, i32 }
%struct._GArray = type { ptr, i32 }
%struct.wtapng_if_stats_mandatory_s = type { i32, i32, i32 }
%struct.wtapng_if_descr_mandatory_s = type { i32, i64, i32, i32, i8, ptr }
%struct.pcapng_interface_statistics_block_s = type { i32, i32, i32 }
%struct.wtap_dumper = type { ptr, i32, i32, i32, i32, i32, i64, ptr, ptr, ptr, ptr, ptr, ptr, ptr, ptr, ptr, ptr, ptr, ptr, ptr, i32, i32, i32 }
%struct.compute_options_size_t = type { i32, ptr }
%struct.pcapng_option_header = type { i16, i16 }
%struct.write_options_t = type { ptr, ptr, ptr }

; Function Attrs: nounwind uwtable
define internal i32 @pcapng_write_option_eofopt(ptr noundef %0, ptr noundef %1) #0 {
  %3 = alloca i32, align 4
  %4 = alloca ptr, align 8
  %5 = alloca ptr, align 8
  %6 = alloca %struct.pcapng_option_header, align 2
  store ptr %0, ptr %4, align 8
  store ptr %1, ptr %5, align 8
  %7 = getelementptr inbounds %struct.pcapng_option_header, ptr %6, i32 0, i32 0
  store i16 0, ptr %7, align 2
  %8 = getelementptr inbounds %struct.pcapng_option_header, ptr %6, i32 0, i32 1
  store i16 0, ptr %8, align 2
  %9 = load ptr, ptr %4, align 8
  %10 = load ptr, ptr %5, align 8
  %11 = call i32 @wtap_dump_file_write(ptr noundef %9, ptr noundef %6, i64 noundef 4, ptr noundef %10)
  %12 = icmp ne i32 %11, 0
  br i1 %12, label %14, label %13

13:                                               ; preds = %2
  store i32 0, ptr %3, align 4
  br label %15

14:                                               ; preds = %2
  store i32 1, ptr %3, align 4
  br label %15

15:                                               ; preds = %14, %13
  %16 = load i32, ptr %3, align 4
  ret i32 %16
}

; Function Attrs: nounwind uwtable
define internal i32 @write_options(ptr noundef %0, ptr noundef %1, ptr noundef %2, ptr noundef %3) #0 {
  %5 = alloca i32, align 4
  %6 = alloca ptr, align 8
  %7 = alloca ptr, align 8
  %8 = alloca ptr, align 8
  %9 = alloca ptr, align 8
  %10 = alloca %struct.write_options_t, align 8
  store ptr %0, ptr %6, align 8
  store ptr %1, ptr %7, align 8
  store ptr %2, ptr %8, align 8
  store ptr %3, ptr %9, align 8
  %11 = load ptr, ptr %6, align 8
  %12 = getelementptr inbounds %struct.write_options_t, ptr %10, i32 0, i32 0
  store ptr %11, ptr %12, align 8
  %13 = load ptr, ptr %9, align 8
  %14 = getelementptr inbounds %struct.write_options_t, ptr %10, i32 0, i32 1
  store ptr %13, ptr %14, align 8
  %15 = load ptr, ptr %8, align 8
  %16 = getelementptr inbounds %struct.write_options_t, ptr %10, i32 0, i32 2
  store ptr %15, ptr %16, align 8
  %17 = load ptr, ptr %7, align 8
  %18 = call i32 @wtap_block_foreach_option(ptr noundef %17, ptr noundef @write_block_option, ptr noundef %10)
  %19 = icmp ne i32 %18, 0
  br i1 %19, label %21, label %20

20:                                               ; preds = %4
  store i32 0, ptr %5, align 4
  br label %25

21:                                               ; preds = %4
  %22 = load ptr, ptr %6, align 8
  %23 = load ptr, ptr %9, align 8
  %24 = call i32 @pcapng_write_option_eofopt(ptr noundef %22, ptr noundef %23)
  store i32 %24, ptr %5, align 4
  br label %25

25:                                               ; preds = %21, %20
  %26 = load i32, ptr %5, align 4
  ret i32 %26
}

; Function Attrs: nounwind uwtable
define internal i32 @compute_options_size(ptr noundef %0, ptr noundef %1) #0 {
  %3 = alloca ptr, align 8
  %4 = alloca ptr, align 8
  %5 = alloca %struct.compute_options_size_t, align 8
  store ptr %0, ptr %3, align 8
  store ptr %1, ptr %4, align 8
  %6 = getelementptr inbounds %struct.compute_options_size_t, ptr %5, i32 0, i32 0
  store i32 0, ptr %6, align 8
  %7 = load ptr, ptr %4, align 8
  %8 = getelementptr inbounds %struct.compute_options_size_t, ptr %5, i32 0, i32 1
  store ptr %7, ptr %8, align 8
  %9 = load ptr, ptr %3, align 8
  %10 = call i32 @wtap_block_foreach_option(ptr noundef %9, ptr noundef @compute_block_option_size, ptr noundef %5)
  %11 = getelementptr inbounds %struct.compute_options_size_t, ptr %5, i32 0, i32 0
  %12 = load i32, ptr %11, align 8
  %13 = icmp ne i32 %12, 0
  br i1 %13, label %14, label %18

14:                                               ; preds = %2
  %15 = getelementptr inbounds %struct.compute_options_size_t, ptr %5, i32 0, i32 0
  %16 = load i32, ptr %15, align 8
  %17 = add i32 %16, 4
  store i32 %17, ptr %15, align 8
  br label %18

18:                                               ; preds = %14, %2
  %19 = getelementptr inbounds %struct.compute_options_size_t, ptr %5, i32 0, i32 0
  %20 = load i32, ptr %19, align 8
  ret i32 %20
}

; Function Attrs: nounwind uwtable
define internal i32 @pcapng_write_interface_statistics_block(ptr noundef %0, ptr noundef %1, ptr noundef %2) #0 {
  %4 = alloca i32, align 4
  %5 = alloca ptr, align 8
  %6 = alloca ptr, align 8
  %7 = alloca ptr, align 8
  %8 = alloca %struct.pcapng_block_header_s, align 4
  %9 = alloca %struct.pcapng_interface_statistics_block_s, align 4
  %10 = alloca i32, align 4
  %11 = alloca ptr, align 8
  store ptr %0, ptr %5, align 8
  store ptr %1, ptr %6, align 8
  store ptr %2, ptr %7, align 8
  %12 = load ptr, ptr %6, align 8
  %13 = call ptr @wtap_block_get_mandatory_data(ptr noundef %12)
  store ptr %13, ptr %11, align 8
  br label %14

14:                                               ; preds = %3
  br label %15

15:                                               ; preds = %14
  %16 = load ptr, ptr %6, align 8
  %17 = call i32 @compute_options_size(ptr noundef %16, ptr noundef @compute_isb_option_size)
  store i32 %17, ptr %10, align 4
  %18 = getelementptr inbounds %struct.pcapng_block_header_s, ptr %8, i32 0, i32 0
  store i32 5, ptr %18, align 4
  %19 = load i32, ptr %10, align 4
  %20 = zext i32 %19 to i64
  %21 = add i64 20, %20
  %22 = add i64 %21, 4
  %23 = trunc i64 %22 to i32
  %24 = getelementptr inbounds %struct.pcapng_block_header_s, ptr %8, i32 0, i32 1
  store i32 %23, ptr %24, align 4
  br label %25

25:                                               ; preds = %15
  br label %26

26:                                               ; preds = %25
  %27 = load ptr, ptr %5, align 8
  %28 = load ptr, ptr %7, align 8
  %29 = call i32 @wtap_dump_file_write(ptr noundef %27, ptr noundef %8, i64 noundef 8, ptr noundef %28)
  %30 = icmp ne i32 %29, 0
  br i1 %30, label %32, label %31

31:                                               ; preds = %26
  store i32 0, ptr %4, align 4
  br label %69

32:                                               ; preds = %26
  %33 = load ptr, ptr %11, align 8
  %34 = getelementptr inbounds %struct.wtapng_if_stats_mandatory_s, ptr %33, i32 0, i32 0
  %35 = load i32, ptr %34, align 4
  %36 = getelementptr inbounds %struct.pcapng_interface_statistics_block_s, ptr %9, i32 0, i32 0
  store i32 %35, ptr %36, align 4
  %37 = load ptr, ptr %11, align 8
  %38 = getelementptr inbounds %struct.wtapng_if_stats_mandatory_s, ptr %37, i32 0, i32 1
  %39 = load i32, ptr %38, align 4
  %40 = getelementptr inbounds %struct.pcapng_interface_statistics_block_s, ptr %9, i32 0, i32 1
  store i32 %39, ptr %40, align 4
  %41 = load ptr, ptr %11, align 8
  %42 = getelementptr inbounds %struct.wtapng_if_stats_mandatory_s, ptr %41, i32 0, i32 2
  %43 = load i32, ptr %42, align 4
  %44 = getelementptr inbounds %struct.pcapng_interface_statistics_block_s, ptr %9, i32 0, i32 2
  store i32 %43, ptr %44, align 4
  %45 = load ptr, ptr %5, align 8
  %46 = load ptr, ptr %7, align 8
  %47 = call i32 @wtap_dump_file_write(ptr noundef %45, ptr noundef %9, i64 noundef 12, ptr noundef %46)
  %48 = icmp ne i32 %47, 0
  br i1 %48, label %50, label %49

49:                                               ; preds = %32
  store i32 0, ptr %4, align 4
  br label %69

50:                                               ; preds = %32
  %51 = load i32, ptr %10, align 4
  %52 = icmp ne i32 %51, 0
  br i1 %52, label %53, label %61

53:                                               ; preds = %50
  %54 = load ptr, ptr %5, align 8
  %55 = load ptr, ptr %6, align 8
  %56 = load ptr, ptr %7, align 8
  %57 = call i32 @write_options(ptr noundef %54, ptr noundef %55, ptr noundef @write_wtap_isb_option, ptr noundef %56)
  %58 = icmp ne i32 %57, 0
  br i1 %58, label %60, label %59

59:                                               ; preds = %53
  store i32 0, ptr %4, align 4
  br label %69

60:                                               ; preds = %53
  br label %61

61:                                               ; preds = %60, %50
  %62 = load ptr, ptr %5, align 8
  %63 = getelementptr inbounds %struct.pcapng_block_header_s, ptr %8, i32 0, i32 1
  %64 = load ptr, ptr %7, align 8
  %65 = call i32 @wtap_dump_file_write(ptr noundef %62, ptr noundef %63, i64 noundef 4, ptr noundef %64)
  %66 = icmp ne i32 %65, 0
  br i1 %66, label %68, label %67

67:                                               ; preds = %61
  store i32 0, ptr %4, align 4
  br label %69

68:                                               ; preds = %61
  store i32 1, ptr %4, align 4
  br label %69

69:                                               ; preds = %68, %67, %59, %49, %31
  %70 = load i32, ptr %4, align 4
  ret i32 %70
}

; Function Attrs: nounwind uwtable
define internal i32 @pcapng_dump_finish(ptr noundef %0, ptr noundef %1, ptr noundef %2) #0 {
  %4 = alloca i32, align 4
  %5 = alloca ptr, align 8
  %6 = alloca ptr, align 8
  %7 = alloca ptr, align 8
  %8 = alloca i32, align 4
  %9 = alloca i32, align 4
  %10 = alloca ptr, align 8
  %11 = alloca ptr, align 8
  %12 = alloca ptr, align 8
  store ptr %0, ptr %5, align 8
  store ptr %1, ptr %6, align 8
  store ptr %2, ptr %7, align 8
  %13 = load ptr, ptr %5, align 8
  %14 = load ptr, ptr %6, align 8
  %15 = call i32 @pcapng_write_internal_blocks(ptr noundef %13, ptr noundef %14)
  %16 = icmp ne i32 %15, 0
  br i1 %16, label %18, label %17

17:                                               ; preds = %3
  store i32 0, ptr %4, align 4
  br label %75

18:                                               ; preds = %3
  store i32 0, ptr %8, align 4
  br label %19

19:                                               ; preds = %69, %18
  %20 = load i32, ptr %8, align 4
  %21 = load ptr, ptr %5, align 8
  %22 = getelementptr inbounds %struct.wtap_dumper, ptr %21, i32 0, i32 15
  %23 = load ptr, ptr %22, align 8
  %24 = getelementptr inbounds %struct._GArray, ptr %23, i32 0, i32 1
  %25 = load i32, ptr %24, align 8
  %26 = icmp ult i32 %20, %25
  br i1 %26, label %27, label %72

27:                                               ; preds = %19
  %28 = load ptr, ptr %5, align 8
  %29 = getelementptr inbounds %struct.wtap_dumper, ptr %28, i32 0, i32 15
  %30 = load ptr, ptr %29, align 8
  %31 = getelementptr inbounds %struct._GArray, ptr %30, i32 0, i32 0
  %32 = load ptr, ptr %31, align 8
  %33 = load i32, ptr %8, align 4
  %34 = zext i32 %33 to i64
  %35 = getelementptr ptr, ptr %32, i64 %34
  %36 = load ptr, ptr %35, align 8
  store ptr %36, ptr %10, align 8
  %37 = load ptr, ptr %10, align 8
  %38 = call ptr @wtap_block_get_mandatory_data(ptr noundef %37)
  store ptr %38, ptr %11, align 8
  store i32 0, ptr %9, align 4
  br label %39

39:                                               ; preds = %65, %27
  %40 = load i32, ptr %9, align 4
  %41 = load ptr, ptr %11, align 8
  %42 = getelementptr inbounds %struct.wtapng_if_descr_mandatory_s, ptr %41, i32 0, i32 4
  %43 = load i8, ptr %42, align 8
  %44 = zext i8 %43 to i32
  %45 = icmp ult i32 %40, %44
  br i1 %45, label %46, label %68

46:                                               ; preds = %39
  %47 = load ptr, ptr %11, align 8
  %48 = getelementptr inbounds %struct.wtapng_if_descr_mandatory_s, ptr %47, i32 0, i32 5
  %49 = load ptr, ptr %48, align 8
  %50 = getelementptr inbounds %struct._GArray, ptr %49, i32 0, i32 0
  %51 = load ptr, ptr %50, align 8
  %52 = load i32, ptr %9, align 4
  %53 = zext i32 %52 to i64
  %54 = getelementptr ptr, ptr %51, i64 %53
  %55 = load ptr, ptr %54, align 8
  store ptr %55, ptr %12, align 8
  br label %56

56:                                               ; preds = %46
  br label %57

57:                                               ; preds = %56
  %58 = load ptr, ptr %5, align 8
  %59 = load ptr, ptr %12, align 8
  %60 = load ptr, ptr %6, align 8
  %61 = call i32 @pcapng_write_interface_statistics_block(ptr noundef %58, ptr noundef %59, ptr noundef %60)
  %62 = icmp ne i32 %61, 0
  br i1 %62, label %64, label %63

63:                                               ; preds = %57
  store i32 0, ptr %4, align 4
  br label %75

64:                                               ; preds = %57
  br label %65

65:                                               ; preds = %64
  %66 = load i32, ptr %9, align 4
  %67 = add i32 %66, 1
  store i32 %67, ptr %9, align 4
  br label %39, !llvm.loop !15

68:                                               ; preds = %39
  br label %69

69:                                               ; preds = %68
  %70 = load i32, ptr %8, align 4
  %71 = add i32 %70, 1
  store i32 %71, ptr %8, align 4
  br label %19, !llvm.loop !16

72:                                               ; preds = %19
  br label %73

73:                                               ; preds = %72
  br label %74

74:                                               ; preds = %73
  store i32 1, ptr %4, align 4
  br label %75

75:                                               ; preds = %74, %63, %17
  %76 = load i32, ptr %4, align 4
  ret i32 %76
}