; Function Attrs: nounwind uwtable
define internal range(i32 0, 2) i32 @pcapng_dump_finish(ptr noundef %0, ptr noundef %1, ptr readnone captures(none) %2) #0 {
  %4 = alloca %struct.pcapng_option_header, align 2
  %5 = alloca %struct.write_options_t, align 8
  %6 = alloca %struct.compute_options_size_t, align 8
  %7 = alloca %struct.pcapng_block_header_s, align 4
  %8 = alloca %struct.pcapng_interface_statistics_block_s, align 4
  %9 = tail call fastcc i32 @pcapng_write_internal_blocks(ptr noundef %0, ptr noundef %1)
  %.not = icmp eq i32 %9, 0
  br i1 %.not, label %.loopexit, label %.preheader

.preheader:                                       ; preds = %3
  %10 = getelementptr inbounds nuw i8, ptr %0, i64 104
  %11 = load ptr, ptr %10, align 8
  %12 = getelementptr inbounds nuw i8, ptr %11, i64 8
  %13 = load i32, ptr %12, align 8
  %.not25 = icmp eq i32 %13, 0
  br i1 %.not25, label %.loopexit, label %.lr.ph24

.lr.ph24:                                         ; preds = %.preheader
  %14 = getelementptr inbounds nuw i8, ptr %6, i64 8
  %15 = getelementptr inbounds nuw i8, ptr %7, i64 4
  %16 = getelementptr inbounds nuw i8, ptr %8, i64 4
  %17 = getelementptr inbounds nuw i8, ptr %8, i64 8
  %18 = getelementptr inbounds nuw i8, ptr %5, i64 8
  %19 = getelementptr inbounds nuw i8, ptr %5, i64 16
  %20 = getelementptr inbounds nuw i8, ptr %4, i64 2
  br label %21

21:                                               ; preds = %.lr.ph24, %._crit_edge
  %indvars.iv29 = phi i64 [ 0, %.lr.ph24 ], [ %indvars.iv.next30, %._crit_edge ]
  %22 = phi ptr [ %11, %.lr.ph24 ], [ %57, %._crit_edge ]
  %23 = load ptr, ptr %22, align 8
  %24 = getelementptr ptr, ptr %23, i64 %indvars.iv29
  %25 = load ptr, ptr %24, align 8
  %26 = call ptr @wtap_block_get_mandatory_data(ptr noundef %25) #16
  %27 = getelementptr inbounds nuw i8, ptr %26, i64 24
  %28 = load i8, ptr %27, align 8
  %.not26 = icmp eq i8 %28, 0
  br i1 %.not26, label %._crit_edge, label %.lr.ph

.lr.ph:                                           ; preds = %21
  %29 = getelementptr inbounds nuw i8, ptr %26, i64 32
  br label %34

30:                                               ; preds = %pcapng_write_interface_statistics_block.exit
  %indvars.iv.next = add nuw nsw i64 %indvars.iv, 1
  %31 = load i8, ptr %27, align 8
  %32 = zext i8 %31 to i64
  %33 = icmp samesign ult i64 %indvars.iv.next, %32
  br i1 %33, label %34, label %._crit_edge, !llvm.loop !16

34:                                               ; preds = %.lr.ph, %30
  %indvars.iv = phi i64 [ 0, %.lr.ph ], [ %indvars.iv.next, %30 ]
  %35 = load ptr, ptr %29, align 8
  %36 = load ptr, ptr %35, align 8
  %37 = getelementptr ptr, ptr %36, i64 %indvars.iv
  %38 = load ptr, ptr %37, align 8
  call void @llvm.lifetime.start.p0(i64 8, ptr nonnull %7)
  call void @llvm.lifetime.start.p0(i64 12, ptr nonnull %8)
  %39 = call ptr @wtap_block_get_mandatory_data(ptr noundef %38) #16
  call void @llvm.lifetime.start.p0(i64 16, ptr nonnull %6)
  store i32 0, ptr %6, align 8
  store ptr @compute_isb_option_size, ptr %14, align 8
  %40 = call i32 @wtap_block_foreach_option(ptr noundef %38, ptr noundef nonnull @compute_block_option_size, ptr noundef nonnull %6) #16
  %41 = load i32, ptr %6, align 8
  %.not.i.i = icmp eq i32 %41, 0
  %42 = add i32 %41, 4
  %spec.select.i.i = select i1 %.not.i.i, i32 0, i32 %42
  call void @llvm.lifetime.end.p0(i64 16, ptr nonnull %6)
  store i32 5, ptr %7, align 4
  %43 = add i32 %spec.select.i.i, 24
  store i32 %43, ptr %15, align 4
  %44 = call i32 @wtap_dump_file_write(ptr noundef %0, ptr noundef nonnull %7, i64 noundef 8, ptr noundef %1) #16
  %.not.i = icmp eq i32 %44, 0
  br i1 %.not.i, label %pcapng_write_interface_statistics_block.exit.thread, label %45

45:                                               ; preds = %34
  %46 = load i32, ptr %39, align 4
  store i32 %46, ptr %8, align 4
  %47 = getelementptr inbounds nuw i8, ptr %39, i64 4
  %48 = load i32, ptr %47, align 4
  store i32 %48, ptr %16, align 4
  %49 = getelementptr inbounds nuw i8, ptr %39, i64 8
  %50 = load i32, ptr %49, align 4
  store i32 %50, ptr %17, align 4
  %51 = call i32 @wtap_dump_file_write(ptr noundef %0, ptr noundef nonnull %8, i64 noundef 12, ptr noundef %1) #16
  %.not16.i = icmp eq i32 %51, 0
  br i1 %.not16.i, label %pcapng_write_interface_statistics_block.exit.thread, label %52

52:                                               ; preds = %45
  %.not17.i = icmp eq i32 %spec.select.i.i, 0
  br i1 %.not17.i, label %pcapng_write_interface_statistics_block.exit, label %53

53:                                               ; preds = %52
  call void @llvm.lifetime.start.p0(i64 24, ptr nonnull %5)
  store ptr %0, ptr %5, align 8
  store ptr %1, ptr %18, align 8
  store ptr @write_wtap_isb_option, ptr %19, align 8
  %54 = call i32 @wtap_block_foreach_option(ptr noundef %38, ptr noundef nonnull @write_block_option, ptr noundef nonnull %5) #16
  %.not.i20.i = icmp eq i32 %54, 0
  br i1 %.not.i20.i, label %write_options.exit.thread.i, label %write_options.exit.i

write_options.exit.thread.i:                      ; preds = %53
  call void @llvm.lifetime.end.p0(i64 24, ptr nonnull %5)
  br label %pcapng_write_interface_statistics_block.exit.thread

write_options.exit.i:                             ; preds = %53
  call void @llvm.lifetime.start.p0(i64 4, ptr nonnull %4)
  store i16 0, ptr %4, align 2
  store i16 0, ptr %20, align 2
  %55 = call i32 @wtap_dump_file_write(ptr noundef %0, ptr noundef nonnull %4, i64 noundef 4, ptr noundef %1) #16
  %.not.i.i.not.i = icmp eq i32 %55, 0
  call void @llvm.lifetime.end.p0(i64 4, ptr nonnull %4)
  call void @llvm.lifetime.end.p0(i64 24, ptr nonnull %5)
  br i1 %.not.i.i.not.i, label %pcapng_write_interface_statistics_block.exit.thread, label %pcapng_write_interface_statistics_block.exit

pcapng_write_interface_statistics_block.exit.thread: ; preds = %34, %45, %write_options.exit.i, %write_options.exit.thread.i
  call void @llvm.lifetime.end.p0(i64 8, ptr nonnull %7)
  call void @llvm.lifetime.end.p0(i64 12, ptr nonnull %8)
  br label %.loopexit

pcapng_write_interface_statistics_block.exit:     ; preds = %52, %write_options.exit.i
  %56 = call i32 @wtap_dump_file_write(ptr noundef %0, ptr noundef nonnull %15, i64 noundef 4, ptr noundef %1) #16
  %.not19.i.not = icmp eq i32 %56, 0
  call void @llvm.lifetime.end.p0(i64 8, ptr nonnull %7)
  call void @llvm.lifetime.end.p0(i64 12, ptr nonnull %8)
  br i1 %.not19.i.not, label %.loopexit, label %30

._crit_edge:                                      ; preds = %30, %21
  %indvars.iv.next30 = add nuw nsw i64 %indvars.iv29, 1
  %57 = load ptr, ptr %10, align 8
  %58 = getelementptr inbounds nuw i8, ptr %57, i64 8
  %59 = load i32, ptr %58, align 8
  %60 = zext i32 %59 to i64
  %61 = icmp samesign ult i64 %indvars.iv.next30, %60
  br i1 %61, label %21, label %.loopexit, !llvm.loop !17

.loopexit:                                        ; preds = %._crit_edge, %pcapng_write_interface_statistics_block.exit, %.preheader, %pcapng_write_interface_statistics_block.exit.thread, %3
  %.0 = phi i32 [ 0, %3 ], [ 0, %pcapng_write_interface_statistics_block.exit.thread ], [ 1, %.preheader ], [ 0, %pcapng_write_interface_statistics_block.exit ], [ 1, %._crit_edge ]
  ret i32 %.0
}